target datalayout = "e-m:e-p270:32:32-p271:32:32-p272:64:64-i64:64-i128:128-f80:128-n8:16:32:64-S128"
target triple = "x86_64-pc-linux-gnu"

%struct.PJconsts = type { ptr, ptr, ptr, ptr, ptr, ptr, ptr, ptr, ptr, ptr, ptr, ptr, i32, ptr, ptr, ptr, ptr, ptr, ptr, ptr, ptr, double, double, double, double, double, double, double, double, double, double, double, double, double, double, double, double, double, double, double, double, double, double, i32, i32, i32, i32, i32, i32, i32, i32, i32, i32, i32, ptr, ptr, ptr, ptr, ptr, ptr, double, double, double, double, double, double, double, double, double, double, double, i32, [7 x double], i32, ptr, ptr, double, double, i32, [4 x i8], %"class.std::shared_ptr", i8, double, i8, %"class.std::__cxx11::basic_string", %"class.std::__cxx11::basic_string", %"class.std::__cxx11::basic_string", i8, %"class.std::vector", i32, %"class.std::vector.3", i32, i8, i8, i8, ptr }
%"class.std::shared_ptr" = type { %"class.std::__shared_ptr" }
%"class.std::__shared_ptr" = type { ptr, %"class.std::__shared_count" }
%"class.std::__shared_count" = type { ptr }
%"class.std::__cxx11::basic_string" = type { %"struct.std::__cxx11::basic_string<char>::_Alloc_hider", i64, %union.anon }
%"struct.std::__cxx11::basic_string<char>::_Alloc_hider" = type { ptr }
%union.anon = type { i64, [8 x i8] }
%"class.std::vector" = type { %"struct.std::_Vector_base" }
%"struct.std::_Vector_base" = type { %"struct.std::_Vector_base<osgeo::proj::operation::GridDescription, std::allocator<osgeo::proj::operation::GridDescription>>::_Vector_impl" }
%"struct.std::_Vector_base<osgeo::proj::operation::GridDescription, std::allocator<osgeo::proj::operation::GridDescription>>::_Vector_impl" = type { %"struct.std::_Vector_base<osgeo::proj::operation::GridDescription, std::allocator<osgeo::proj::operation::GridDescription>>::_Vector_impl_data" }
%"struct.std::_Vector_base<osgeo::proj::operation::GridDescription, std::allocator<osgeo::proj::operation::GridDescription>>::_Vector_impl_data" = type { ptr, ptr, ptr }
%"class.std::vector.3" = type { %"struct.std::_Vector_base.4" }
%"struct.std::_Vector_base.4" = type { %"struct.std::_Vector_base<PJCoordOperation, std::allocator<PJCoordOperation>>::_Vector_impl" }
%"struct.std::_Vector_base<PJCoordOperation, std::allocator<PJCoordOperation>>::_Vector_impl" = type { %"struct.std::_Vector_base<PJCoordOperation, std::allocator<PJCoordOperation>>::_Vector_impl_data" }
%"struct.std::_Vector_base<PJCoordOperation, std::allocator<PJCoordOperation>>::_Vector_impl_data" = type { ptr, ptr, ptr }
%"struct.(anonymous namespace)::pj_urmfps" = type { double, double }
%struct.PJ_LP = type { double, double }
%struct.PJ_XY = type { double, double }

; Function Attrs: mustprogress uwtable
define internal { double, double } @_ZL16urmfps_s_forward5PJ_LPP8PJconsts(double %0, double %1, ptr noundef %2) #0 {
  %4 = alloca %struct.PJ_XY, align 8
  %5 = alloca %struct.PJ_LP, align 8
  %6 = alloca ptr, align 8
  %7 = getelementptr inbounds nuw { double, double }, ptr %5, i32 0, i32 0
  store double %0, ptr %7, align 8
  %8 = getelementptr inbounds nuw { double, double }, ptr %5, i32 0, i32 1
  store double %1, ptr %8, align 8
  store ptr %2, ptr %6, align 8, !tbaa !3
  call void @llvm.memset.p0.i64(ptr align 8 %4, i8 0, i64 16, i1 false)
  %9 = load ptr, ptr %6, align 8, !tbaa !3
  %10 = getelementptr inbounds nuw %struct.PJconsts, ptr %9, i32 0, i32 0
  %11 = load ptr, ptr %10, align 8, !tbaa !44
  %12 = load ptr, ptr %6, align 8, !tbaa !3
  %13 = getelementptr inbounds nuw %struct.PJconsts, ptr %12, i32 0, i32 11
  %14 = load ptr, ptr %13, align 8, !tbaa !43
  %15 = getelementptr inbounds nuw %"struct.(anonymous namespace)::pj_urmfps", ptr %14, i32 0, i32 0
  %16 = load double, ptr %15, align 8, !tbaa !47
  %17 = getelementptr inbounds nuw %struct.PJ_LP, ptr %5, i32 0, i32 1
  %18 = load double, ptr %17, align 8, !tbaa !56
  %19 = call double @sin(double noundef %18) #7, !tbaa !55
  %20 = fmul double %16, %19
  %21 = call noundef double @_Z5aasinP6pj_ctxd(ptr noundef %11, double noundef %20)
  %22 = getelementptr inbounds nuw %struct.PJ_LP, ptr %5, i32 0, i32 1
  store double %21, ptr %22, align 8, !tbaa !56
  %23 = getelementptr inbounds nuw %struct.PJ_LP, ptr %5, i32 0, i32 0
  %24 = load double, ptr %23, align 8, !tbaa !59
  %25 = fmul double 0x3FEC1384D50FB212, %24
  %26 = getelementptr inbounds nuw %struct.PJ_LP, ptr %5, i32 0, i32 1
  %27 = load double, ptr %26, align 8, !tbaa !56
  %28 = call double @cos(double noundef %27) #7, !tbaa !55
  %29 = fmul double %25, %28
  %30 = getelementptr inbounds nuw %struct.PJ_XY, ptr %4, i32 0, i32 0
  store double %29, ptr %30, align 8, !tbaa !58
  %31 = load ptr, ptr %6, align 8, !tbaa !3
  %32 = getelementptr inbounds nuw %struct.PJconsts, ptr %31, i32 0, i32 11
  %33 = load ptr, ptr %32, align 8, !tbaa !43
  %34 = getelementptr inbounds nuw %"struct.(anonymous namespace)::pj_urmfps", ptr %33, i32 0, i32 1
  %35 = load double, ptr %34, align 8, !tbaa !49
  %36 = getelementptr inbounds nuw %struct.PJ_LP, ptr %5, i32 0, i32 1
  %37 = load double, ptr %36, align 8, !tbaa !56
  %38 = fmul double %35, %37
  %39 = getelementptr inbounds nuw %struct.PJ_XY, ptr %4, i32 0, i32 1
  store double %38, ptr %39, align 8, !tbaa !53
  %40 = load { double, double }, ptr %4, align 8
  ret { double, double } %40
}