; Function Attrs: mustprogress uwtable
define internal { double, double } @_ZL16urmfps_s_forward5PJ_LPP8PJconsts(double %0, double %1, ptr noundef readonly captures(none) %2) #0 {
  %4 = load ptr, ptr %2, align 8, !tbaa !41
  %5 = getelementptr inbounds nuw i8, ptr %2, i64 88
  %6 = load ptr, ptr %5, align 8, !tbaa !40
  %7 = load double, ptr %6, align 8, !tbaa !43
  %8 = tail call double @sin(double noundef %1) #5, !tbaa !49
  %9 = fmul double %7, %8
  %10 = tail call noundef double @_Z5aasinP6pj_ctxd(ptr noundef %4, double noundef %9)
  %11 = fmul double %0, 0x3FEC1384D50FB212
  %12 = tail call double @cos(double noundef %10) #5, !tbaa !49
  %13 = fmul double %11, %12
  %14 = load ptr, ptr %5, align 8, !tbaa !40
  %15 = getelementptr inbounds nuw i8, ptr %14, i64 8
  %16 = load double, ptr %15, align 8, !tbaa !45
  %17 = fmul double %10, %16
  %.fca.0.insert = insertvalue { double, double } poison, double %13, 0
  %.fca.1.insert = insertvalue { double, double } %.fca.0.insert, double %17, 1
  ret { double, double } %.fca.1.insert
}